target datalayout = "e-m:e-p270:32:32-p271:32:32-p272:64:64-i64:64-i128:128-f80:128-n8:16:32:64-S128"
target triple = "x86_64-unknown-linux-gnu"

%"class.icu_75::UObject" = type { ptr }
%"class.icu_75::UnicodeString" = type { %"class.icu_75::Replaceable", %"union.icu_75::UnicodeString::StackBufferOrFields" }
%"class.icu_75::Replaceable" = type { %"class.icu_75::UObject" }
%"union.icu_75::UnicodeString::StackBufferOrFields" = type { %struct.anon.0, [32 x i8] }
%struct.anon.0 = type { i16, i32, i32, ptr }
%"struct.icu_75::AlphabeticIndex::Record" = type { [8 x i8], %"class.icu_75::UnicodeString", ptr }

; Function Attrs: mustprogress uwtable
define internal noundef i32 @_ZN6icu_75L15recordCompareFnEPKvS1_S1_(ptr noundef %context, ptr noundef %left, ptr noundef %right) #2 {
entry:
  %context.addr = alloca ptr, align 8
  %left.addr = alloca ptr, align 8
  %right.addr = alloca ptr, align 8
  %leftElement = alloca ptr, align 8
  %rightElement = alloca ptr, align 8
  %leftRec = alloca ptr, align 8
  %rightRec = alloca ptr, align 8
  %col = alloca ptr, align 8
  %errorCode = alloca i32, align 4
  store ptr %context, ptr %context.addr, align 8
  store ptr %left, ptr %left.addr, align 8
  store ptr %right, ptr %right.addr, align 8
  %0 = load ptr, ptr %left.addr, align 8
  store ptr %0, ptr %leftElement, align 8
  %1 = load ptr, ptr %right.addr, align 8
  store ptr %1, ptr %rightElement, align 8
  %2 = load ptr, ptr %leftElement, align 8
  %3 = load ptr, ptr %2, align 8
  store ptr %3, ptr %leftRec, align 8
  %4 = load ptr, ptr %rightElement, align 8
  %5 = load ptr, ptr %4, align 8
  store ptr %5, ptr %rightRec, align 8
  %6 = load ptr, ptr %context.addr, align 8
  store ptr %6, ptr %col, align 8
  store i32 0, ptr %errorCode, align 4
  %7 = load ptr, ptr %col, align 8
  %8 = load ptr, ptr %leftRec, align 8
  %name_ = getelementptr inbounds %"struct.icu_75::AlphabeticIndex::Record", ptr %8, i32 0, i32 1
  %9 = load ptr, ptr %rightRec, align 8
  %name_1 = getelementptr inbounds %"struct.icu_75::AlphabeticIndex::Record", ptr %9, i32 0, i32 1
  %vtable = load ptr, ptr %7, align 8
  %vfn = getelementptr inbounds ptr, ptr %vtable, i64 7
  %10 = load ptr, ptr %vfn, align 8
  %call = call noundef i32 %10(ptr noundef nonnull align 8 dereferenceable(8) %7, ptr noundef nonnull align 8 dereferenceable(64) %name_, ptr noundef nonnull align 8 dereferenceable(64) %name_1, ptr noundef nonnull align 4 dereferenceable(4) %errorCode)
  ret i32 %call
}