; Function Attrs: mustprogress uwtable
define internal noundef i32 @_ZN6icu_75L15recordCompareFnEPKvS1_S1_(ptr noundef %context, ptr nocapture noundef readonly %left, ptr nocapture noundef readonly %right) #3 {
entry:
  %errorCode = alloca i32, align 4
  %0 = load ptr, ptr %left, align 8
  %1 = load ptr, ptr %right, align 8
  store i32 0, ptr %errorCode, align 4
  %name_ = getelementptr inbounds i8, ptr %0, i64 8
  %name_1 = getelementptr inbounds i8, ptr %1, i64 8
  %vtable = load ptr, ptr %context, align 8
  %vfn = getelementptr inbounds i8, ptr %vtable, i64 56
  %2 = load ptr, ptr %vfn, align 8
  %call = call noundef i32 %2(ptr noundef nonnull align 8 dereferenceable(8) %context, ptr noundef nonnull align 8 dereferenceable(64) %name_, ptr noundef nonnull align 8 dereferenceable(64) %name_1, ptr noundef nonnull align 4 dereferenceable(4) %errorCode)
  ret i32 %call
}